target datalayout = "e-m:e-p270:32:32-p271:32:32-p272:64:64-i64:64-i128:128-f80:128-n8:16:32:64-S128"
target triple = "x86_64-pc-linux-gnu"

%struct.AVRational = type { i32, i32 }
%struct.AVFormatContext = type { ptr, ptr, ptr, ptr, ptr, i32, i32, ptr, i32, ptr, i32, ptr, ptr, i64, i64, i64, i32, i32, i32, i64, i64, ptr, i32, i32, ptr, i32, i32, i32, i32, ptr, i64, i32, i32, %struct.AVIOInterruptCB, i32, i32, i32, i32, i64, i32, i32, i32, i32, i32, i32, i32, i32, i32, i32, i32, i32, i64, i32, i32, i32, i32, i32, ptr, ptr, ptr, ptr, i32, ptr, ptr, ptr, ptr, i32, ptr, ptr, i64, ptr, ptr, ptr, i64 }
%struct.AVIOInterruptCB = type { ptr, ptr }
%struct.AVStream = type { ptr, i32, i32, ptr, ptr, %struct.AVRational, i64, i64, i64, i32, i32, %struct.AVRational, ptr, %struct.AVRational, %struct.AVPacket, i32, %struct.AVRational, i32 }
%struct.AVPacket = type { ptr, i64, i64, ptr, i32, i32, i32, ptr, i32, i64, i64, ptr, ptr, %struct.AVRational }
%struct.AVCodecParameters = type { i32, i32, i32, ptr, i32, ptr, i32, i32, i64, i32, i32, i32, i32, i32, i32, %struct.AVRational, %struct.AVRational, i32, i32, i32, i32, i32, i32, i32, %struct.AVChannelLayout, i32, i32, i32, i32, i32, i32 }
%struct.AVChannelLayout = type { i32, i32, %union.anon.0, ptr }
%union.anon.0 = type { i64 }
%struct.FFInputFormat = type { %struct.AVInputFormat, i32, i32, i32, ptr, ptr, ptr, ptr, ptr, ptr, ptr, ptr, ptr, ptr }
%struct.AVInputFormat = type { ptr, ptr, i32, ptr, ptr, ptr, ptr }
%struct.RawVideoDemuxerContext = type { ptr, i32, i32, ptr, %struct.AVRational }

@.str.20 = private unnamed_addr constant [27 x i8] c"No such pixel format: %s.\0A\00", align 1
@.str.21 = private unnamed_addr constant [39 x i8] c"unsupported format: %s for bitpacked.\0A\00", align 1

; Function Attrs: inlinehint nounwind uwtable
define internal ptr @ffifmt(ptr noundef %0) #3 {
  %2 = alloca ptr, align 8
  store ptr %0, ptr %2, align 8, !tbaa !71
  %3 = load ptr, ptr %2, align 8, !tbaa !71
  ret ptr %3
}

; Function Attrs: nounwind uwtable
define internal i32 @rawvideo_read_header(ptr noundef %0) #0 {
  %2 = alloca i32, align 4
  %3 = alloca ptr, align 8
  %4 = alloca ptr, align 8
  %5 = alloca i32, align 4
  %6 = alloca ptr, align 8
  %7 = alloca i32, align 4
  %8 = alloca i32, align 4
  %9 = alloca i32, align 4
  %10 = alloca i32, align 4
  %11 = alloca i32, align 4
  %12 = alloca ptr, align 8
  %13 = alloca i32, align 4
  %14 = alloca %struct.AVRational, align 4
  store ptr %0, ptr %3, align 8, !tbaa !4
  call void @llvm.lifetime.start.p0(i64 8, ptr %4) #5
  %15 = load ptr, ptr %3, align 8, !tbaa !4
  %16 = getelementptr inbounds nuw %struct.AVFormatContext, ptr %15, i32 0, i32 3
  %17 = load ptr, ptr %16, align 8, !tbaa !9
  store ptr %17, ptr %4, align 8, !tbaa !26
  call void @llvm.lifetime.start.p0(i64 4, ptr %5) #5
  call void @llvm.lifetime.start.p0(i64 8, ptr %6) #5
  call void @llvm.lifetime.start.p0(i64 4, ptr %7) #5
  call void @llvm.lifetime.start.p0(i64 4, ptr %8) #5
  %18 = load ptr, ptr %3, align 8, !tbaa !4
  %19 = call ptr @avformat_new_stream(ptr noundef %18, ptr noundef null)
  store ptr %19, ptr %6, align 8, !tbaa !28
  %20 = load ptr, ptr %6, align 8, !tbaa !28
  %21 = icmp ne ptr %20, null
  br i1 %21, label %23, label %22

22:                                               ; preds = %1
  store i32 -12, ptr %2, align 4
  store i32 1, ptr %9, align 4
  br label %235

23:                                               ; preds = %1
  %24 = load ptr, ptr %6, align 8, !tbaa !28
  %25 = getelementptr inbounds nuw %struct.AVStream, ptr %24, i32 0, i32 3
  %26 = load ptr, ptr %25, align 8, !tbaa !30
  %27 = getelementptr inbounds nuw %struct.AVCodecParameters, ptr %26, i32 0, i32 0
  store i32 0, ptr %27, align 8, !tbaa !37
  %28 = load ptr, ptr %3, align 8, !tbaa !4
  %29 = getelementptr inbounds nuw %struct.AVFormatContext, ptr %28, i32 0, i32 1
  %30 = load ptr, ptr %29, align 8, !tbaa !40
  %31 = call ptr @ffifmt(ptr noundef %30)
  %32 = getelementptr inbounds nuw %struct.FFInputFormat, ptr %31, i32 0, i32 1
  %33 = load i32, ptr %32, align 8, !tbaa !41
  %34 = load ptr, ptr %6, align 8, !tbaa !28
  %35 = getelementptr inbounds nuw %struct.AVStream, ptr %34, i32 0, i32 3
  %36 = load ptr, ptr %35, align 8, !tbaa !30
  %37 = getelementptr inbounds nuw %struct.AVCodecParameters, ptr %36, i32 0, i32 1
  store i32 %33, ptr %37, align 4, !tbaa !45
  %38 = load ptr, ptr %3, align 8, !tbaa !4
  %39 = getelementptr inbounds nuw %struct.AVFormatContext, ptr %38, i32 0, i32 1
  %40 = load ptr, ptr %39, align 8, !tbaa !40
  %41 = call ptr @ffifmt(ptr noundef %40)
  %42 = getelementptr inbounds nuw %struct.FFInputFormat, ptr %41, i32 0, i32 1
  %43 = load i32, ptr %42, align 8, !tbaa !41
  %44 = icmp ne i32 %43, 127
  br i1 %44, label %45, label %65

45:                                               ; preds = %23
  %46 = load ptr, ptr %3, align 8, !tbaa !4
  %47 = getelementptr inbounds nuw %struct.AVFormatContext, ptr %46, i32 0, i32 1
  %48 = load ptr, ptr %47, align 8, !tbaa !40
  %49 = call ptr @ffifmt(ptr noundef %48)
  %50 = getelementptr inbounds nuw %struct.FFInputFormat, ptr %49, i32 0, i32 1
  %51 = load i32, ptr %50, align 8, !tbaa !41
  %52 = icmp ne i32 %51, 125
  br i1 %52, label %53, label %65

53:                                               ; preds = %45
  %54 = load ptr, ptr %4, align 8, !tbaa !26
  %55 = getelementptr inbounds nuw %struct.RawVideoDemuxerContext, ptr %54, i32 0, i32 3
  %56 = load ptr, ptr %55, align 8, !tbaa !46
  %57 = call i32 @av_get_pix_fmt(ptr noundef %56)
  store i32 %57, ptr %5, align 4, !tbaa !48
  %58 = icmp eq i32 %57, -1
  br i1 %58, label %59, label %64

59:                                               ; preds = %53
  %60 = load ptr, ptr %3, align 8, !tbaa !4
  %61 = load ptr, ptr %4, align 8, !tbaa !26
  %62 = getelementptr inbounds nuw %struct.RawVideoDemuxerContext, ptr %61, i32 0, i32 3
  %63 = load ptr, ptr %62, align 8, !tbaa !46
  call void (ptr, i32, ptr, ...) @av_log(ptr noundef %60, i32 noundef 16, ptr noundef @.str.20, ptr noundef %63)
  store i32 -22, ptr %2, align 4
  store i32 1, ptr %9, align 4
  br label %235

64:                                               ; preds = %53
  br label %65

65:                                               ; preds = %64, %45, %23
  %66 = load ptr, ptr %6, align 8, !tbaa !28
  %67 = load ptr, ptr %4, align 8, !tbaa !26
  %68 = getelementptr inbounds nuw %struct.RawVideoDemuxerContext, ptr %67, i32 0, i32 4
  %69 = getelementptr inbounds nuw %struct.AVRational, ptr %68, i32 0, i32 1
  %70 = load i32, ptr %69, align 4, !tbaa !49
  %71 = load ptr, ptr %4, align 8, !tbaa !26
  %72 = getelementptr inbounds nuw %struct.RawVideoDemuxerContext, ptr %71, i32 0, i32 4
  %73 = getelementptr inbounds nuw %struct.AVRational, ptr %72, i32 0, i32 0
  %74 = load i32, ptr %73, align 8, !tbaa !50
  call void @avpriv_set_pts_info(ptr noundef %66, i32 noundef 64, i32 noundef %70, i32 noundef %74)
  %75 = load ptr, ptr %4, align 8, !tbaa !26
  %76 = getelementptr inbounds nuw %struct.RawVideoDemuxerContext, ptr %75, i32 0, i32 1
  %77 = load i32, ptr %76, align 8, !tbaa !51
  %78 = load ptr, ptr %4, align 8, !tbaa !26
  %79 = getelementptr inbounds nuw %struct.RawVideoDemuxerContext, ptr %78, i32 0, i32 2
  %80 = load i32, ptr %79, align 4, !tbaa !52
  %81 = load ptr, ptr %3, align 8, !tbaa !4
  %82 = call i32 @av_image_check_size(i32 noundef %77, i32 noundef %80, i32 noundef 0, ptr noundef %81)
  store i32 %82, ptr %8, align 4, !tbaa !48
  %83 = load i32, ptr %8, align 4, !tbaa !48
  %84 = icmp slt i32 %83, 0
  br i1 %84, label %85, label %87

85:                                               ; preds = %65
  %86 = load i32, ptr %8, align 4, !tbaa !48
  store i32 %86, ptr %2, align 4
  store i32 1, ptr %9, align 4
  br label %235

87:                                               ; preds = %65
  %88 = load ptr, ptr %4, align 8, !tbaa !26
  %89 = getelementptr inbounds nuw %struct.RawVideoDemuxerContext, ptr %88, i32 0, i32 1
  %90 = load i32, ptr %89, align 8, !tbaa !51
  %91 = load ptr, ptr %6, align 8, !tbaa !28
  %92 = getelementptr inbounds nuw %struct.AVStream, ptr %91, i32 0, i32 3
  %93 = load ptr, ptr %92, align 8, !tbaa !30
  %94 = getelementptr inbounds nuw %struct.AVCodecParameters, ptr %93, i32 0, i32 13
  store i32 %90, ptr %94, align 8, !tbaa !53
  %95 = load ptr, ptr %4, align 8, !tbaa !26
  %96 = getelementptr inbounds nuw %struct.RawVideoDemuxerContext, ptr %95, i32 0, i32 2
  %97 = load i32, ptr %96, align 4, !tbaa !52
  %98 = load ptr, ptr %6, align 8, !tbaa !28
  %99 = getelementptr inbounds nuw %struct.AVStream, ptr %98, i32 0, i32 3
  %100 = load ptr, ptr %99, align 8, !tbaa !30
  %101 = getelementptr inbounds nuw %struct.AVCodecParameters, ptr %100, i32 0, i32 14
  store i32 %97, ptr %101, align 4, !tbaa !54
  %102 = load ptr, ptr %3, align 8, !tbaa !4
  %103 = getelementptr inbounds nuw %struct.AVFormatContext, ptr %102, i32 0, i32 1
  %104 = load ptr, ptr %103, align 8, !tbaa !40
  %105 = call ptr @ffifmt(ptr noundef %104)
  %106 = getelementptr inbounds nuw %struct.FFInputFormat, ptr %105, i32 0, i32 1
  %107 = load i32, ptr %106, align 8, !tbaa !41
  %108 = icmp eq i32 %107, 226
  br i1 %108, label %109, label %155

109:                                              ; preds = %87
  call void @llvm.lifetime.start.p0(i64 4, ptr %10) #5
  call void @llvm.lifetime.start.p0(i64 4, ptr %11) #5
  call void @llvm.lifetime.start.p0(i64 8, ptr %12) #5
  call void @llvm.lifetime.start.p0(i64 4, ptr %13) #5
  %110 = load i32, ptr %5, align 4, !tbaa !48
  %111 = call ptr @av_pix_fmt_desc_get(i32 noundef %110)
  store ptr %111, ptr %12, align 8, !tbaa !55
  %112 = load ptr, ptr %12, align 8, !tbaa !55
  %113 = call i32 @av_get_bits_per_pixel(ptr noundef %112)
  %114 = load ptr, ptr %6, align 8, !tbaa !28
  %115 = getelementptr inbounds nuw %struct.AVStream, ptr %114, i32 0, i32 3
  %116 = load ptr, ptr %115, align 8, !tbaa !30
  %117 = getelementptr inbounds nuw %struct.AVCodecParameters, ptr %116, i32 0, i32 9
  store i32 %113, ptr %117, align 8, !tbaa !57
  %118 = load i32, ptr %5, align 4, !tbaa !48
  %119 = icmp eq i32 %118, 64
  br i1 %119, label %120, label %121

120:                                              ; preds = %109
  store i32 1498831189, ptr %13, align 4, !tbaa !48
  store i32 5, ptr %10, align 4, !tbaa !48
  store i32 2, ptr %11, align 4, !tbaa !48
  br label %135

121:                                              ; preds = %109
  %122 = load i32, ptr %5, align 4, !tbaa !48
  %123 = icmp eq i32 %122, 15
  br i1 %123, label %124, label %129

124:                                              ; preds = %121
  store i32 1498831189, ptr %13, align 4, !tbaa !48
  store i32 4, ptr %10, align 4, !tbaa !48
  store i32 2, ptr %11, align 4, !tbaa !48
  %125 = load ptr, ptr %6, align 8, !tbaa !28
  %126 = getelementptr inbounds nuw %struct.AVStream, ptr %125, i32 0, i32 3
  %127 = load ptr, ptr %126, align 8, !tbaa !30
  %128 = getelementptr inbounds nuw %struct.AVCodecParameters, ptr %127, i32 0, i32 1
  store i32 13, ptr %128, align 4, !tbaa !45
  br label %134

129:                                              ; preds = %121
  %130 = load ptr, ptr %3, align 8, !tbaa !4
  %131 = load ptr, ptr %4, align 8, !tbaa !26
  %132 = getelementptr inbounds nuw %struct.RawVideoDemuxerContext, ptr %131, i32 0, i32 3
  %133 = load ptr, ptr %132, align 8, !tbaa !46
  call void (ptr, i32, ptr, ...) @av_log(ptr noundef %130, i32 noundef 16, ptr noundef @.str.21, ptr noundef %133)
  store i32 -22, ptr %2, align 4
  store i32 1, ptr %9, align 4
  br label %152

134:                                              ; preds = %124
  br label %135

135:                                              ; preds = %134, %120
  %136 = load i32, ptr %13, align 4, !tbaa !48
  %137 = load ptr, ptr %6, align 8, !tbaa !28
  %138 = getelementptr inbounds nuw %struct.AVStream, ptr %137, i32 0, i32 3
  %139 = load ptr, ptr %138, align 8, !tbaa !30
  %140 = getelementptr inbounds nuw %struct.AVCodecParameters, ptr %139, i32 0, i32 2
  store i32 %136, ptr %140, align 8, !tbaa !58
  %141 = load ptr, ptr %4, align 8, !tbaa !26
  %142 = getelementptr inbounds nuw %struct.RawVideoDemuxerContext, ptr %141, i32 0, i32 1
  %143 = load i32, ptr %142, align 8, !tbaa !51
  %144 = load ptr, ptr %4, align 8, !tbaa !26
  %145 = getelementptr inbounds nuw %struct.RawVideoDemuxerContext, ptr %144, i32 0, i32 2
  %146 = load i32, ptr %145, align 4, !tbaa !52
  %147 = mul nsw i32 %143, %146
  %148 = load i32, ptr %10, align 4, !tbaa !48
  %149 = mul i32 %147, %148
  %150 = load i32, ptr %11, align 4, !tbaa !48
  %151 = udiv i32 %149, %150
  store i32 %151, ptr %7, align 4, !tbaa !48
  store i32 0, ptr %9, align 4
  br label %152

152:                                              ; preds = %135, %129
  call void @llvm.lifetime.end.p0(i64 4, ptr %13) #5
  call void @llvm.lifetime.end.p0(i64 8, ptr %12) #5
  call void @llvm.lifetime.end.p0(i64 4, ptr %11) #5
  call void @llvm.lifetime.end.p0(i64 4, ptr %10) #5
  %153 = load i32, ptr %9, align 4
  switch i32 %153, label %235 [
    i32 0, label %154
  ]

154:                                              ; preds = %152
  br label %207

155:                                              ; preds = %87
  %156 = load ptr, ptr %3, align 8, !tbaa !4
  %157 = getelementptr inbounds nuw %struct.AVFormatContext, ptr %156, i32 0, i32 1
  %158 = load ptr, ptr %157, align 8, !tbaa !40
  %159 = call ptr @ffifmt(ptr noundef %158)
  %160 = getelementptr inbounds nuw %struct.FFInputFormat, ptr %159, i32 0, i32 1
  %161 = load i32, ptr %160, align 8, !tbaa !41
  %162 = icmp eq i32 %161, 127
  br i1 %162, label %171, label %163

163:                                              ; preds = %155
  %164 = load ptr, ptr %3, align 8, !tbaa !4
  %165 = getelementptr inbounds nuw %struct.AVFormatContext, ptr %164, i32 0, i32 1
  %166 = load ptr, ptr %165, align 8, !tbaa !40
  %167 = call ptr @ffifmt(ptr noundef %166)
  %168 = getelementptr inbounds nuw %struct.FFInputFormat, ptr %167, i32 0, i32 1
  %169 = load i32, ptr %168, align 8, !tbaa !41
  %170 = icmp eq i32 %169, 125
  br i1 %170, label %171, label %192

171:                                              ; preds = %163, %155
  %172 = load ptr, ptr %3, align 8, !tbaa !4
  %173 = getelementptr inbounds nuw %struct.AVFormatContext, ptr %172, i32 0, i32 1
  %174 = load ptr, ptr %173, align 8, !tbaa !40
  %175 = call ptr @ffifmt(ptr noundef %174)
  %176 = getelementptr inbounds nuw %struct.FFInputFormat, ptr %175, i32 0, i32 1
  %177 = load i32, ptr %176, align 8, !tbaa !41
  %178 = icmp eq i32 %177, 127
  %179 = select i1 %178, i32 64, i32 47
  store i32 %179, ptr %5, align 4, !tbaa !48
  %180 = load ptr, ptr %4, align 8, !tbaa !26
  %181 = getelementptr inbounds nuw %struct.RawVideoDemuxerContext, ptr %180, i32 0, i32 1
  %182 = load i32, ptr %181, align 8, !tbaa !51
  %183 = add nsw i32 %182, 47
  %184 = sdiv i32 %183, 48
  %185 = mul nsw i32 %184, 48
  %186 = load ptr, ptr %4, align 8, !tbaa !26
  %187 = getelementptr inbounds nuw %struct.RawVideoDemuxerContext, ptr %186, i32 0, i32 2
  %188 = load i32, ptr %187, align 4, !tbaa !52
  %189 = mul nsw i32 %185, %188
  %190 = mul nsw i32 %189, 8
  %191 = sdiv i32 %190, 3
  store i32 %191, ptr %7, align 4, !tbaa !48
  br label %206

192:                                              ; preds = %163
  %193 = load i32, ptr %5, align 4, !tbaa !48
  %194 = load ptr, ptr %4, align 8, !tbaa !26
  %195 = getelementptr inbounds nuw %struct.RawVideoDemuxerContext, ptr %194, i32 0, i32 1
  %196 = load i32, ptr %195, align 8, !tbaa !51
  %197 = load ptr, ptr %4, align 8, !tbaa !26
  %198 = getelementptr inbounds nuw %struct.RawVideoDemuxerContext, ptr %197, i32 0, i32 2
  %199 = load i32, ptr %198, align 4, !tbaa !52
  %200 = call i32 @av_image_get_buffer_size(i32 noundef %193, i32 noundef %196, i32 noundef %199, i32 noundef 1)
  store i32 %200, ptr %7, align 4, !tbaa !48
  %201 = load i32, ptr %7, align 4, !tbaa !48
  %202 = icmp slt i32 %201, 0
  br i1 %202, label %203, label %205

203:                                              ; preds = %192
  %204 = load i32, ptr %7, align 4, !tbaa !48
  store i32 %204, ptr %2, align 4
  store i32 1, ptr %9, align 4
  br label %235

205:                                              ; preds = %192
  br label %206

206:                                              ; preds = %205, %171
  br label %207

207:                                              ; preds = %206, %154
  %208 = load i32, ptr %7, align 4, !tbaa !48
  %209 = icmp eq i32 %208, 0
  br i1 %209, label %210, label %211

210:                                              ; preds = %207
  store i32 -22, ptr %2, align 4
  store i32 1, ptr %9, align 4
  br label %235

211:                                              ; preds = %207
  %212 = load i32, ptr %5, align 4, !tbaa !48
  %213 = load ptr, ptr %6, align 8, !tbaa !28
  %214 = getelementptr inbounds nuw %struct.AVStream, ptr %213, i32 0, i32 3
  %215 = load ptr, ptr %214, align 8, !tbaa !30
  %216 = getelementptr inbounds nuw %struct.AVCodecParameters, ptr %215, i32 0, i32 7
  store i32 %212, ptr %216, align 4, !tbaa !59
  %217 = load i32, ptr %7, align 4, !tbaa !48
  %218 = load ptr, ptr %3, align 8, !tbaa !4
  %219 = getelementptr inbounds nuw %struct.AVFormatContext, ptr %218, i32 0, i32 16
  store i32 %217, ptr %219, align 8, !tbaa !60
  %220 = load ptr, ptr %3, align 8, !tbaa !4
  %221 = getelementptr inbounds nuw %struct.AVFormatContext, ptr %220, i32 0, i32 16
  %222 = load i32, ptr %221, align 8, !tbaa !60
  %223 = zext i32 %222 to i64
  %224 = getelementptr inbounds nuw %struct.AVRational, ptr %14, i32 0, i32 0
  store i32 8, ptr %224, align 4, !tbaa !61
  %225 = getelementptr inbounds nuw %struct.AVRational, ptr %14, i32 0, i32 1
  store i32 1, ptr %225, align 4, !tbaa !62
  %226 = load ptr, ptr %6, align 8, !tbaa !28
  %227 = getelementptr inbounds nuw %struct.AVStream, ptr %226, i32 0, i32 5
  %228 = load i64, ptr %14, align 4
  %229 = load i64, ptr %227, align 8
  %230 = call i64 @av_rescale_q(i64 noundef %223, i64 %228, i64 %229) #6
  %231 = load ptr, ptr %6, align 8, !tbaa !28
  %232 = getelementptr inbounds nuw %struct.AVStream, ptr %231, i32 0, i32 3
  %233 = load ptr, ptr %232, align 8, !tbaa !30
  %234 = getelementptr inbounds nuw %struct.AVCodecParameters, ptr %233, i32 0, i32 8
  store i64 %230, ptr %234, align 8, !tbaa !63
  store i32 0, ptr %2, align 4
  store i32 1, ptr %9, align 4
  br label %235

235:                                              ; preds = %211, %210, %203, %152, %85, %59, %22
  call void @llvm.lifetime.end.p0(i64 4, ptr %8) #5
  call void @llvm.lifetime.end.p0(i64 4, ptr %7) #5
  call void @llvm.lifetime.end.p0(i64 8, ptr %6) #5
  call void @llvm.lifetime.end.p0(i64 4, ptr %5) #5
  call void @llvm.lifetime.end.p0(i64 8, ptr %4) #5
  %236 = load i32, ptr %2, align 4
  ret i32 %236
}