; Function Attrs: nounwind uwtable
define internal range(i32 -2147483648, 1) i32 @rawvideo_read_header(ptr noundef %0) #0 {
  %2 = getelementptr inbounds nuw i8, ptr %0, i64 24
  %3 = load ptr, ptr %2, align 8, !tbaa !4
  %4 = tail call ptr @avformat_new_stream(ptr noundef %0, ptr noundef null) #4
  %.not = icmp eq ptr %4, null
  br i1 %.not, label %79, label %5

5:                                                ; preds = %1
  %6 = getelementptr inbounds nuw i8, ptr %4, i64 16
  %7 = load ptr, ptr %6, align 8, !tbaa !24
  store i32 0, ptr %7, align 8, !tbaa !31
  %8 = getelementptr inbounds nuw i8, ptr %0, i64 8
  %9 = load ptr, ptr %8, align 8, !tbaa !34
  %10 = getelementptr inbounds nuw i8, ptr %9, i64 56
  %11 = load i32, ptr %10, align 8, !tbaa !35
  %12 = getelementptr inbounds nuw i8, ptr %7, i64 4
  store i32 %11, ptr %12, align 4, !tbaa !39
  switch i32 %11, label %13 [
    i32 127, label %20
    i32 125, label %20
  ]

13:                                               ; preds = %5
  %14 = getelementptr inbounds nuw i8, ptr %3, i64 16
  %15 = load ptr, ptr %14, align 8, !tbaa !40
  %16 = tail call i32 @av_get_pix_fmt(ptr noundef %15) #4
  %17 = icmp eq i32 %16, -1
  br i1 %17, label %18, label %20

18:                                               ; preds = %13
  %19 = load ptr, ptr %14, align 8, !tbaa !40
  tail call void (ptr, i32, ptr, ...) @av_log(ptr noundef nonnull %0, i32 noundef 16, ptr noundef nonnull @.str.20, ptr noundef %19) #4
  br label %79

20:                                               ; preds = %5, %5, %13
  %.057 = phi i32 [ %16, %13 ], [ undef, %5 ], [ undef, %5 ]
  %21 = getelementptr inbounds nuw i8, ptr %3, i64 24
  %22 = getelementptr inbounds nuw i8, ptr %3, i64 28
  %23 = load i32, ptr %22, align 4, !tbaa !42
  %24 = load i32, ptr %21, align 8, !tbaa !43
  tail call void @avpriv_set_pts_info(ptr noundef nonnull %4, i32 noundef 64, i32 noundef %23, i32 noundef %24) #4
  %25 = getelementptr inbounds nuw i8, ptr %3, i64 8
  %26 = load i32, ptr %25, align 8, !tbaa !44
  %27 = getelementptr inbounds nuw i8, ptr %3, i64 12
  %28 = load i32, ptr %27, align 4, !tbaa !45
  %29 = tail call i32 @av_image_check_size(i32 noundef %26, i32 noundef %28, i32 noundef 0, ptr noundef nonnull %0) #4
  %30 = icmp slt i32 %29, 0
  br i1 %30, label %79, label %31

31:                                               ; preds = %20
  %32 = load i32, ptr %25, align 8, !tbaa !44
  %.fr71 = freeze i32 %32
  %33 = load ptr, ptr %6, align 8, !tbaa !24
  %34 = getelementptr inbounds nuw i8, ptr %33, i64 72
  store i32 %.fr71, ptr %34, align 8, !tbaa !46
  %35 = load i32, ptr %27, align 4, !tbaa !45
  %36 = getelementptr inbounds nuw i8, ptr %33, i64 76
  store i32 %35, ptr %36, align 4, !tbaa !47
  %37 = load ptr, ptr %8, align 8, !tbaa !34
  %38 = getelementptr inbounds nuw i8, ptr %37, i64 56
  %39 = load i32, ptr %38, align 8, !tbaa !35
  switch i32 %39, label %65 [
    i32 226, label %40
    i32 127, label %56
    i32 125, label %56
  ]

40:                                               ; preds = %31
  %41 = tail call ptr @av_pix_fmt_desc_get(i32 noundef %.057) #4
  %42 = tail call i32 @av_get_bits_per_pixel(ptr noundef %41) #4
  %43 = load ptr, ptr %6, align 8, !tbaa !24
  %44 = getelementptr inbounds nuw i8, ptr %43, i64 56
  store i32 %42, ptr %44, align 8, !tbaa !48
  switch i32 %.057, label %53 [
    i32 64, label %.thread
    i32 15, label %45
  ]

45:                                               ; preds = %40
  %46 = getelementptr inbounds nuw i8, ptr %43, i64 4
  store i32 13, ptr %46, align 4, !tbaa !39
  br label %.thread

.thread:                                          ; preds = %45, %40
  %.063 = phi i32 [ 4, %45 ], [ 5, %40 ]
  %47 = getelementptr inbounds nuw i8, ptr %43, i64 8
  store i32 1498831189, ptr %47, align 8, !tbaa !49
  %48 = load i32, ptr %25, align 8, !tbaa !44
  %49 = load i32, ptr %27, align 4, !tbaa !45
  %50 = mul i32 %48, %.063
  %51 = mul i32 %50, %49
  %52 = lshr i32 %51, 1
  br label %68

53:                                               ; preds = %40
  %54 = getelementptr inbounds nuw i8, ptr %3, i64 16
  %55 = load ptr, ptr %54, align 8, !tbaa !40
  tail call void (ptr, i32, ptr, ...) @av_log(ptr noundef nonnull %0, i32 noundef 16, ptr noundef nonnull @.str.21, ptr noundef %55) #4
  br label %79

56:                                               ; preds = %31, %31
  %57 = icmp eq i32 %39, 127
  %58 = select i1 %57, i32 64, i32 47
  %59 = add i32 %.fr71, 47
  %60 = srem i32 %59, 48
  %61 = sub nsw i32 %59, %60
  %62 = shl i32 %35, 3
  %63 = mul i32 %62, %61
  %64 = sdiv i32 %63, 3
  br label %68

65:                                               ; preds = %31
  %66 = tail call i32 @av_image_get_buffer_size(i32 noundef %.057, i32 noundef %.fr71, i32 noundef %35, i32 noundef 1) #4
  %67 = icmp slt i32 %66, 0
  br i1 %67, label %79, label %68

68:                                               ; preds = %.thread, %56, %65
  %.161 = phi i32 [ %64, %56 ], [ %66, %65 ], [ %52, %.thread ]
  %.158 = phi i32 [ %58, %56 ], [ %.057, %65 ], [ %.057, %.thread ]
  %69 = icmp eq i32 %.161, 0
  br i1 %69, label %79, label %70

70:                                               ; preds = %68
  %71 = load ptr, ptr %6, align 8, !tbaa !24
  %72 = getelementptr inbounds nuw i8, ptr %71, i64 44
  store i32 %.158, ptr %72, align 4, !tbaa !50
  %73 = getelementptr inbounds nuw i8, ptr %0, i64 120
  store i32 %.161, ptr %73, align 8, !tbaa !51
  %74 = zext i32 %.161 to i64
  %75 = getelementptr inbounds nuw i8, ptr %4, i64 32
  %76 = load i64, ptr %75, align 8
  %77 = tail call i64 @av_rescale_q(i64 noundef %74, i64 4294967304, i64 %76) #5
  %78 = getelementptr inbounds nuw i8, ptr %71, i64 48
  store i64 %77, ptr %78, align 8, !tbaa !52
  br label %79

79:                                               ; preds = %53, %68, %65, %20, %1, %70, %18
  %.0 = phi i32 [ -22, %18 ], [ 0, %70 ], [ -22, %53 ], [ -12, %1 ], [ %29, %20 ], [ %66, %65 ], [ -22, %68 ]
  ret i32 %.0
}